target datalayout = "e-m:e-p270:32:32-p271:32:32-p272:64:64-i64:64-i128:128-f80:128-n8:16:32:64-S128"
target triple = "x86_64-pc-linux-gnu"

%struct.VP8LPrefixCode = type { i8, i8 }
%struct.VP8LHistogram = type { ptr, [256 x i32], [256 x i32], [256 x i32], [40 x i32], i32, i32, i64, i64, i64, i64, [5 x i8] }
%struct.PixOrCopy = type { i8, i16, i32 }

@kPrefixEncodeCode = external constant [512 x %struct.VP8LPrefixCode], align 16

; Function Attrs: inlinehint nounwind uwtable
define internal i32 @BitsLog2Floor(i32 noundef %0) #3 {
  %2 = alloca i32, align 4
  store i32 %0, ptr %2, align 4, !tbaa !14
  %3 = load i32, ptr %2, align 4, !tbaa !14
  %4 = call i32 @llvm.ctlz.i32(i32 %3, i1 true)
  %5 = xor i32 31, %4
  ret i32 %5
}

; Function Attrs: inlinehint nounwind uwtable
define internal void @VP8LPrefixEncodeBitsNoLUT(i32 noundef %0, ptr noundef %1, ptr noundef %2) #3 {
  %4 = alloca i32, align 4
  %5 = alloca ptr, align 8
  %6 = alloca ptr, align 8
  %7 = alloca i32, align 4
  %8 = alloca i32, align 4
  store i32 %0, ptr %4, align 4, !tbaa !14
  store ptr %1, ptr %5, align 8, !tbaa !22
  store ptr %2, ptr %6, align 8, !tbaa !22
  call void @llvm.lifetime.start.p0(i64 4, ptr %7) #7
  %9 = load i32, ptr %4, align 4, !tbaa !14
  %10 = add nsw i32 %9, -1
  store i32 %10, ptr %4, align 4, !tbaa !14
  %11 = call i32 @BitsLog2Floor(i32 noundef %10)
  store i32 %11, ptr %7, align 4, !tbaa !14
  call void @llvm.lifetime.start.p0(i64 4, ptr %8) #7
  %12 = load i32, ptr %4, align 4, !tbaa !14
  %13 = load i32, ptr %7, align 4, !tbaa !14
  %14 = sub nsw i32 %13, 1
  %15 = ashr i32 %12, %14
  %16 = and i32 %15, 1
  store i32 %16, ptr %8, align 4, !tbaa !14
  %17 = load i32, ptr %7, align 4, !tbaa !14
  %18 = sub nsw i32 %17, 1
  %19 = load ptr, ptr %6, align 8, !tbaa !22
  store i32 %18, ptr %19, align 4, !tbaa !14
  %20 = load i32, ptr %7, align 4, !tbaa !14
  %21 = mul nsw i32 2, %20
  %22 = load i32, ptr %8, align 4, !tbaa !14
  %23 = add nsw i32 %21, %22
  %24 = load ptr, ptr %5, align 8, !tbaa !22
  store i32 %23, ptr %24, align 4, !tbaa !14
  call void @llvm.lifetime.end.p0(i64 4, ptr %8) #7
  call void @llvm.lifetime.end.p0(i64 4, ptr %7) #7
  ret void
}

; Function Attrs: inlinehint nounwind uwtable
define internal i32 @PixOrCopyDistance(ptr noundef %0) #3 {
  %2 = alloca ptr, align 8
  store ptr %0, ptr %2, align 8, !tbaa !3
  %3 = load ptr, ptr %2, align 8, !tbaa !3
  %4 = getelementptr inbounds nuw %struct.PixOrCopy, ptr %3, i32 0, i32 2
  %5 = load i32, ptr %4, align 4, !tbaa !41
  ret i32 %5
}

; Function Attrs: inlinehint nounwind uwtable
define internal void @VP8LPrefixEncodeBits(i32 noundef %0, ptr noundef %1, ptr noundef %2) #3 {
  %4 = alloca i32, align 4
  %5 = alloca ptr, align 8
  %6 = alloca ptr, align 8
  %7 = alloca %struct.VP8LPrefixCode, align 1
  store i32 %0, ptr %4, align 4, !tbaa !14
  store ptr %1, ptr %5, align 8, !tbaa !22
  store ptr %2, ptr %6, align 8, !tbaa !22
  %8 = load i32, ptr %4, align 4, !tbaa !14
  %9 = icmp slt i32 %8, 512
  br i1 %9, label %10, label %22

10:                                               ; preds = %3
  call void @llvm.lifetime.start.p0(i64 2, ptr %7) #7
  %11 = load i32, ptr %4, align 4, !tbaa !14
  %12 = sext i32 %11 to i64
  %13 = getelementptr inbounds [512 x %struct.VP8LPrefixCode], ptr @kPrefixEncodeCode, i64 0, i64 %12
  call void @llvm.memcpy.p0.p0.i64(ptr align 1 %7, ptr align 2 %13, i64 2, i1 false), !tbaa.struct !42
  %14 = getelementptr inbounds nuw %struct.VP8LPrefixCode, ptr %7, i32 0, i32 0
  %15 = load i8, ptr %14, align 1, !tbaa !44
  %16 = sext i8 %15 to i32
  %17 = load ptr, ptr %5, align 8, !tbaa !22
  store i32 %16, ptr %17, align 4, !tbaa !14
  %18 = getelementptr inbounds nuw %struct.VP8LPrefixCode, ptr %7, i32 0, i32 1
  %19 = load i8, ptr %18, align 1, !tbaa !46
  %20 = sext i8 %19 to i32
  %21 = load ptr, ptr %6, align 8, !tbaa !22
  store i32 %20, ptr %21, align 4, !tbaa !14
  call void @llvm.lifetime.end.p0(i64 2, ptr %7) #7
  br label %26

22:                                               ; preds = %3
  %23 = load i32, ptr %4, align 4, !tbaa !14
  %24 = load ptr, ptr %5, align 8, !tbaa !22
  %25 = load ptr, ptr %6, align 8, !tbaa !22
  call void @VP8LPrefixEncodeBitsNoLUT(i32 noundef %23, ptr noundef %24, ptr noundef %25)
  br label %26

26:                                               ; preds = %22, %10
  ret void
}

; Function Attrs: inlinehint nounwind uwtable
define internal i32 @PixOrCopyLength(ptr noundef %0) #3 {
  %2 = alloca ptr, align 8
  store ptr %0, ptr %2, align 8, !tbaa !3
  %3 = load ptr, ptr %2, align 8, !tbaa !3
  %4 = getelementptr inbounds nuw %struct.PixOrCopy, ptr %3, i32 0, i32 1
  %5 = load i16, ptr %4, align 2, !tbaa !47
  %6 = zext i16 %5 to i32
  ret i32 %6
}

; Function Attrs: inlinehint nounwind uwtable
define internal i32 @PixOrCopyCacheIdx(ptr noundef %0) #3 {
  %2 = alloca ptr, align 8
  store ptr %0, ptr %2, align 8, !tbaa !3
  %3 = load ptr, ptr %2, align 8, !tbaa !3
  %4 = getelementptr inbounds nuw %struct.PixOrCopy, ptr %3, i32 0, i32 2
  %5 = load i32, ptr %4, align 4, !tbaa !41
  ret i32 %5
}

; Function Attrs: inlinehint nounwind uwtable
define internal i32 @PixOrCopyIsCacheIdx(ptr noundef %0) #3 {
  %2 = alloca ptr, align 8
  store ptr %0, ptr %2, align 8, !tbaa !3
  %3 = load ptr, ptr %2, align 8, !tbaa !3
  %4 = getelementptr inbounds nuw %struct.PixOrCopy, ptr %3, i32 0, i32 0
  %5 = load i8, ptr %4, align 4, !tbaa !38
  %6 = zext i8 %5 to i32
  %7 = icmp eq i32 %6, 1
  %8 = zext i1 %7 to i32
  ret i32 %8
}

; Function Attrs: inlinehint nounwind uwtable
define internal i32 @PixOrCopyLiteral(ptr noundef %0, i32 noundef %1) #3 {
  %3 = alloca ptr, align 8
  %4 = alloca i32, align 4
  store ptr %0, ptr %3, align 8, !tbaa !3
  store i32 %1, ptr %4, align 4, !tbaa !14
  %5 = load ptr, ptr %3, align 8, !tbaa !3
  %6 = getelementptr inbounds nuw %struct.PixOrCopy, ptr %5, i32 0, i32 2
  %7 = load i32, ptr %6, align 4, !tbaa !41
  %8 = load i32, ptr %4, align 4, !tbaa !14
  %9 = mul nsw i32 %8, 8
  %10 = lshr i32 %7, %9
  %11 = and i32 %10, 255
  ret i32 %11
}

; Function Attrs: inlinehint nounwind uwtable
define internal i32 @PixOrCopyIsLiteral(ptr noundef %0) #3 {
  %2 = alloca ptr, align 8
  store ptr %0, ptr %2, align 8, !tbaa !3
  %3 = load ptr, ptr %2, align 8, !tbaa !3
  %4 = getelementptr inbounds nuw %struct.PixOrCopy, ptr %3, i32 0, i32 0
  %5 = load i8, ptr %4, align 4, !tbaa !38
  %6 = zext i8 %5 to i32
  %7 = icmp eq i32 %6, 0
  %8 = zext i1 %7 to i32
  ret i32 %8
}

; Function Attrs: nounwind uwtable
define hidden void @VP8LHistogramAddSinglePixOrCopy(ptr noundef %0, ptr noundef %1, ptr noundef %2, i32 noundef %3) #0 {
  %5 = alloca ptr, align 8
  %6 = alloca ptr, align 8
  %7 = alloca ptr, align 8
  %8 = alloca i32, align 4
  %9 = alloca i32, align 4
  %10 = alloca i32, align 4
  %11 = alloca i32, align 4
  store ptr %0, ptr %5, align 8, !tbaa !3
  store ptr %1, ptr %6, align 8, !tbaa !3
  store ptr %2, ptr %7, align 8, !tbaa !3
  store i32 %3, ptr %8, align 4, !tbaa !14
  %12 = load ptr, ptr %6, align 8, !tbaa !3
  %13 = call i32 @PixOrCopyIsLiteral(ptr noundef %12)
  %14 = icmp ne i32 %13, 0
  br i1 %14, label %15, label %49

15:                                               ; preds = %4
  %16 = load ptr, ptr %5, align 8, !tbaa !3
  %17 = getelementptr inbounds nuw %struct.VP8LHistogram, ptr %16, i32 0, i32 3
  %18 = load ptr, ptr %6, align 8, !tbaa !3
  %19 = call i32 @PixOrCopyLiteral(ptr noundef %18, i32 noundef 3)
  %20 = zext i32 %19 to i64
  %21 = getelementptr inbounds nuw [256 x i32], ptr %17, i64 0, i64 %20
  %22 = load i32, ptr %21, align 4, !tbaa !14
  %23 = add i32 %22, 1
  store i32 %23, ptr %21, align 4, !tbaa !14
  %24 = load ptr, ptr %5, align 8, !tbaa !3
  %25 = getelementptr inbounds nuw %struct.VP8LHistogram, ptr %24, i32 0, i32 1
  %26 = load ptr, ptr %6, align 8, !tbaa !3
  %27 = call i32 @PixOrCopyLiteral(ptr noundef %26, i32 noundef 2)
  %28 = zext i32 %27 to i64
  %29 = getelementptr inbounds nuw [256 x i32], ptr %25, i64 0, i64 %28
  %30 = load i32, ptr %29, align 4, !tbaa !14
  %31 = add i32 %30, 1
  store i32 %31, ptr %29, align 4, !tbaa !14
  %32 = load ptr, ptr %5, align 8, !tbaa !3
  %33 = getelementptr inbounds nuw %struct.VP8LHistogram, ptr %32, i32 0, i32 0
  %34 = load ptr, ptr %33, align 8, !tbaa !16
  %35 = load ptr, ptr %6, align 8, !tbaa !3
  %36 = call i32 @PixOrCopyLiteral(ptr noundef %35, i32 noundef 1)
  %37 = zext i32 %36 to i64
  %38 = getelementptr inbounds nuw i32, ptr %34, i64 %37
  %39 = load i32, ptr %38, align 4, !tbaa !14
  %40 = add i32 %39, 1
  store i32 %40, ptr %38, align 4, !tbaa !14
  %41 = load ptr, ptr %5, align 8, !tbaa !3
  %42 = getelementptr inbounds nuw %struct.VP8LHistogram, ptr %41, i32 0, i32 2
  %43 = load ptr, ptr %6, align 8, !tbaa !3
  %44 = call i32 @PixOrCopyLiteral(ptr noundef %43, i32 noundef 0)
  %45 = zext i32 %44 to i64
  %46 = getelementptr inbounds nuw [256 x i32], ptr %42, i64 0, i64 %45
  %47 = load i32, ptr %46, align 4, !tbaa !14
  %48 = add i32 %47, 1
  store i32 %48, ptr %46, align 4, !tbaa !14
  br label %97

49:                                               ; preds = %4
  %50 = load ptr, ptr %6, align 8, !tbaa !3
  %51 = call i32 @PixOrCopyIsCacheIdx(ptr noundef %50)
  %52 = icmp ne i32 %51, 0
  br i1 %52, label %53, label %65

53:                                               ; preds = %49
  call void @llvm.lifetime.start.p0(i64 4, ptr %9) #7
  %54 = load ptr, ptr %6, align 8, !tbaa !3
  %55 = call i32 @PixOrCopyCacheIdx(ptr noundef %54)
  %56 = add i32 280, %55
  store i32 %56, ptr %9, align 4, !tbaa !14
  %57 = load ptr, ptr %5, align 8, !tbaa !3
  %58 = getelementptr inbounds nuw %struct.VP8LHistogram, ptr %57, i32 0, i32 0
  %59 = load ptr, ptr %58, align 8, !tbaa !16
  %60 = load i32, ptr %9, align 4, !tbaa !14
  %61 = sext i32 %60 to i64
  %62 = getelementptr inbounds i32, ptr %59, i64 %61
  %63 = load i32, ptr %62, align 4, !tbaa !14
  %64 = add i32 %63, 1
  store i32 %64, ptr %62, align 4, !tbaa !14
  call void @llvm.lifetime.end.p0(i64 4, ptr %9) #7
  br label %96

65:                                               ; preds = %49
  call void @llvm.lifetime.start.p0(i64 4, ptr %10) #7
  call void @llvm.lifetime.start.p0(i64 4, ptr %11) #7
  %66 = load ptr, ptr %6, align 8, !tbaa !3
  %67 = call i32 @PixOrCopyLength(ptr noundef %66)
  call void @VP8LPrefixEncodeBits(i32 noundef %67, ptr noundef %10, ptr noundef %11)
  %68 = load ptr, ptr %5, align 8, !tbaa !3
  %69 = getelementptr inbounds nuw %struct.VP8LHistogram, ptr %68, i32 0, i32 0
  %70 = load ptr, ptr %69, align 8, !tbaa !16
  %71 = load i32, ptr %10, align 4, !tbaa !14
  %72 = add nsw i32 256, %71
  %73 = sext i32 %72 to i64
  %74 = getelementptr inbounds i32, ptr %70, i64 %73
  %75 = load i32, ptr %74, align 4, !tbaa !14
  %76 = add i32 %75, 1
  store i32 %76, ptr %74, align 4, !tbaa !14
  %77 = load ptr, ptr %7, align 8, !tbaa !3
  %78 = icmp eq ptr %77, null
  br i1 %78, label %79, label %82

79:                                               ; preds = %65
  %80 = load ptr, ptr %6, align 8, !tbaa !3
  %81 = call i32 @PixOrCopyDistance(ptr noundef %80)
  call void @VP8LPrefixEncodeBits(i32 noundef %81, ptr noundef %10, ptr noundef %11)
  br label %88

82:                                               ; preds = %65
  %83 = load ptr, ptr %7, align 8, !tbaa !3
  %84 = load i32, ptr %8, align 4, !tbaa !14
  %85 = load ptr, ptr %6, align 8, !tbaa !3
  %86 = call i32 @PixOrCopyDistance(ptr noundef %85)
  %87 = call i32 %83(i32 noundef %84, i32 noundef %86)
  call void @VP8LPrefixEncodeBits(i32 noundef %87, ptr noundef %10, ptr noundef %11)
  br label %88

88:                                               ; preds = %82, %79
  %89 = load ptr, ptr %5, align 8, !tbaa !3
  %90 = getelementptr inbounds nuw %struct.VP8LHistogram, ptr %89, i32 0, i32 4
  %91 = load i32, ptr %10, align 4, !tbaa !14
  %92 = sext i32 %91 to i64
  %93 = getelementptr inbounds [40 x i32], ptr %90, i64 0, i64 %92
  %94 = load i32, ptr %93, align 4, !tbaa !14
  %95 = add i32 %94, 1
  store i32 %95, ptr %93, align 4, !tbaa !14
  call void @llvm.lifetime.end.p0(i64 4, ptr %11) #7
  call void @llvm.lifetime.end.p0(i64 4, ptr %10) #7
  br label %96

96:                                               ; preds = %88, %53
  br label %97

97:                                               ; preds = %96, %15
  ret void
}