; Function Attrs: nounwind uwtable
define hidden void @VP8LHistogramAddSinglePixOrCopy(ptr noundef captures(none) %0, ptr noundef readonly captures(none) %1, ptr noundef readonly captures(address_is_null) %2, i32 noundef %3) local_unnamed_addr #0 {
  %.val = load i8, ptr %1, align 4, !tbaa !12
  switch i8 %.val, label %41 [
    i8 0, label %5
    i8 1, label %33
  ]

5:                                                ; preds = %4
  %6 = getelementptr inbounds nuw i8, ptr %0, i64 2056
  %7 = getelementptr i8, ptr %1, i64 4
  %.val21 = load i32, ptr %7, align 4, !tbaa !16
  %8 = lshr i32 %.val21, 24
  %9 = zext nneg i32 %8 to i64
  %10 = getelementptr inbounds nuw [256 x i32], ptr %6, i64 0, i64 %9
  %11 = load i32, ptr %10, align 4, !tbaa !17
  %12 = add i32 %11, 1
  store i32 %12, ptr %10, align 4, !tbaa !17
  %13 = getelementptr inbounds nuw i8, ptr %0, i64 8
  %.val22 = load i32, ptr %7, align 4, !tbaa !16
  %14 = lshr i32 %.val22, 16
  %15 = and i32 %14, 255
  %16 = zext nneg i32 %15 to i64
  %17 = getelementptr inbounds nuw [256 x i32], ptr %13, i64 0, i64 %16
  %18 = load i32, ptr %17, align 4, !tbaa !17
  %19 = add i32 %18, 1
  store i32 %19, ptr %17, align 4, !tbaa !17
  %20 = load ptr, ptr %0, align 8, !tbaa !18
  %.val23 = load i32, ptr %7, align 4, !tbaa !16
  %21 = lshr i32 %.val23, 8
  %22 = and i32 %21, 255
  %23 = zext nneg i32 %22 to i64
  %24 = getelementptr inbounds nuw i32, ptr %20, i64 %23
  %25 = load i32, ptr %24, align 4, !tbaa !17
  %26 = add i32 %25, 1
  store i32 %26, ptr %24, align 4, !tbaa !17
  %27 = getelementptr inbounds nuw i8, ptr %0, i64 1032
  %.val24 = load i32, ptr %7, align 4, !tbaa !16
  %28 = and i32 %.val24, 255
  %29 = zext nneg i32 %28 to i64
  %30 = getelementptr inbounds nuw [256 x i32], ptr %27, i64 0, i64 %29
  %31 = load i32, ptr %30, align 4, !tbaa !17
  %32 = add i32 %31, 1
  store i32 %32, ptr %30, align 4, !tbaa !17
  br label %102

33:                                               ; preds = %4
  %34 = getelementptr i8, ptr %1, i64 4
  %.val26 = load i32, ptr %34, align 4, !tbaa !16
  %35 = add i32 %.val26, 280
  %36 = load ptr, ptr %0, align 8, !tbaa !18
  %37 = sext i32 %35 to i64
  %38 = getelementptr inbounds i32, ptr %36, i64 %37
  %39 = load i32, ptr %38, align 4, !tbaa !17
  %40 = add i32 %39, 1
  store i32 %40, ptr %38, align 4, !tbaa !17
  br label %102

41:                                               ; preds = %4
  %42 = getelementptr i8, ptr %1, i64 2
  %.val27 = load i16, ptr %42, align 2, !tbaa !22
  %43 = icmp ult i16 %.val27, 512
  br i1 %43, label %44, label %48

44:                                               ; preds = %41
  %45 = zext nneg i16 %.val27 to i64
  %46 = getelementptr inbounds nuw [512 x %struct.VP8LPrefixCode], ptr @kPrefixEncodeCode, i64 0, i64 %45
  %.sroa.0.0.copyload.i = load i8, ptr %46, align 2, !tbaa !23
  %47 = sext i8 %.sroa.0.0.copyload.i to i32
  br label %VP8LPrefixEncodeBits.exit

48:                                               ; preds = %41
  %49 = zext i16 %.val27 to i32
  %50 = add nsw i32 %49, -1
  %51 = tail call range(i32 1, 33) i32 @llvm.ctlz.i32(i32 range(i32 511, 2147483647) %50, i1 true)
  %52 = sub nuw nsw i32 30, %51
  %53 = lshr i32 %50, %52
  %54 = and i32 %53, 1
  %55 = shl nuw nsw i32 %51, 1
  %56 = or disjoint i32 %54, %55
  %57 = xor i32 %56, 62
  br label %VP8LPrefixEncodeBits.exit

VP8LPrefixEncodeBits.exit:                        ; preds = %44, %48
  %.1 = phi i32 [ %47, %44 ], [ %57, %48 ]
  %58 = load ptr, ptr %0, align 8, !tbaa !18
  %59 = sext i32 %.1 to i64
  %60 = getelementptr i32, ptr %58, i64 %59
  %61 = getelementptr i8, ptr %60, i64 1024
  %62 = load i32, ptr %61, align 4, !tbaa !17
  %63 = add i32 %62, 1
  store i32 %63, ptr %61, align 4, !tbaa !17
  %64 = icmp eq ptr %2, null
  %65 = getelementptr i8, ptr %1, i64 4
  %.val28 = load i32, ptr %65, align 4, !tbaa !16
  br i1 %64, label %66, label %81

66:                                               ; preds = %VP8LPrefixEncodeBits.exit
  %67 = icmp slt i32 %.val28, 512
  br i1 %67, label %68, label %72

68:                                               ; preds = %66
  %69 = sext i32 %.val28 to i64
  %70 = getelementptr inbounds [512 x %struct.VP8LPrefixCode], ptr @kPrefixEncodeCode, i64 0, i64 %69
  %.sroa.0.0.copyload.i30 = load i8, ptr %70, align 2, !tbaa !23
  %71 = sext i8 %.sroa.0.0.copyload.i30 to i32
  br label %VP8LPrefixEncodeBits.exit33

72:                                               ; preds = %66
  %73 = add nsw i32 %.val28, -1
  %74 = tail call range(i32 1, 33) i32 @llvm.ctlz.i32(i32 range(i32 511, 2147483647) %73, i1 true)
  %75 = sub nuw nsw i32 30, %74
  %76 = lshr i32 %73, %75
  %77 = and i32 %76, 1
  %78 = shl nuw nsw i32 %74, 1
  %79 = or disjoint i32 %77, %78
  %80 = xor i32 %79, 62
  br label %VP8LPrefixEncodeBits.exit33

81:                                               ; preds = %VP8LPrefixEncodeBits.exit
  %82 = tail call i32 %2(i32 noundef %3, i32 noundef %.val28) #10
  %83 = icmp slt i32 %82, 512
  br i1 %83, label %84, label %88

84:                                               ; preds = %81
  %85 = sext i32 %82 to i64
  %86 = getelementptr inbounds [512 x %struct.VP8LPrefixCode], ptr @kPrefixEncodeCode, i64 0, i64 %85
  %.sroa.0.0.copyload.i34 = load i8, ptr %86, align 2, !tbaa !23
  %87 = sext i8 %.sroa.0.0.copyload.i34 to i32
  br label %VP8LPrefixEncodeBits.exit33

88:                                               ; preds = %81
  %89 = add nsw i32 %82, -1
  %90 = tail call range(i32 1, 33) i32 @llvm.ctlz.i32(i32 range(i32 511, 2147483647) %89, i1 true)
  %91 = sub nuw nsw i32 30, %90
  %92 = lshr i32 %89, %91
  %93 = and i32 %92, 1
  %94 = shl nuw nsw i32 %90, 1
  %95 = or disjoint i32 %93, %94
  %96 = xor i32 %95, 62
  br label %VP8LPrefixEncodeBits.exit33

VP8LPrefixEncodeBits.exit33:                      ; preds = %88, %84, %72, %68
  %.0 = phi i32 [ %71, %68 ], [ %80, %72 ], [ %87, %84 ], [ %96, %88 ]
  %97 = getelementptr inbounds nuw i8, ptr %0, i64 3080
  %98 = sext i32 %.0 to i64
  %99 = getelementptr inbounds [40 x i32], ptr %97, i64 0, i64 %98
  %100 = load i32, ptr %99, align 4, !tbaa !17
  %101 = add i32 %100, 1
  store i32 %101, ptr %99, align 4, !tbaa !17
  br label %102

102:                                              ; preds = %33, %VP8LPrefixEncodeBits.exit33, %5
  ret void
}